target datalayout = "e-m:e-p270:32:32-p271:32:32-p272:64:64-i64:64-i128:128-f80:128-n8:16:32:64-S128"
target triple = "x86_64-pc-linux-gnu"

%"class.duckdb::Value" = type { %"struct.duckdb::LogicalType", i8, %"union.duckdb::Value::Val", %"class.duckdb::shared_ptr.0" }
%"struct.duckdb::LogicalType" = type { i8, i8, %"class.duckdb::shared_ptr" }
%"class.duckdb::shared_ptr" = type { %"class.std::shared_ptr" }
%"class.std::shared_ptr" = type { %"class.std::__shared_ptr" }
%"class.std::__shared_ptr" = type { ptr, %"class.std::__shared_count" }
%"class.std::__shared_count" = type { ptr }
%"union.duckdb::Value::Val" = type { %"struct.duckdb::hugeint_t" }
%"struct.duckdb::hugeint_t" = type { i64, i64 }
%"class.duckdb::shared_ptr.0" = type { %"class.std::shared_ptr.1" }
%"class.std::shared_ptr.1" = type { %"class.std::__shared_ptr.2" }
%"class.std::__shared_ptr.2" = type { ptr, %"class.std::__shared_count" }
%"class.__gnu_cxx::__normal_iterator" = type { ptr }
%"class.duckdb::TableFilter" = type <{ ptr, i8, [7 x i8] }>
%"class.duckdb::ConstantFilter" = type { %"class.duckdb::TableFilter.base", i8, %"class.duckdb::Value" }
%"class.duckdb::TableFilter.base" = type <{ ptr, i8 }>
%"class.duckdb::ConjunctionFilter" = type { %"class.duckdb::TableFilter.base", %"class.duckdb::vector.84" }
%"class.duckdb::vector.84" = type { %"class.std::vector.85" }
%"class.std::vector.85" = type { %"struct.std::_Vector_base.86" }
%"struct.std::_Vector_base.86" = type { %"struct.std::_Vector_base<duckdb::unique_ptr<duckdb::TableFilter>, std::allocator<duckdb::unique_ptr<duckdb::TableFilter>>>::_Vector_impl" }
%"struct.std::_Vector_base<duckdb::unique_ptr<duckdb::TableFilter>, std::allocator<duckdb::unique_ptr<duckdb::TableFilter>>>::_Vector_impl" = type { %"struct.std::_Vector_base<duckdb::unique_ptr<duckdb::TableFilter>, std::allocator<duckdb::unique_ptr<duckdb::TableFilter>>>::_Vector_impl_data" }
%"struct.std::_Vector_base<duckdb::unique_ptr<duckdb::TableFilter>, std::allocator<duckdb::unique_ptr<duckdb::TableFilter>>>::_Vector_impl_data" = type { ptr, ptr, ptr }
%"class.duckdb::unique_ptr.90" = type { %"class.std::unique_ptr.91" }
%"class.std::unique_ptr.91" = type { %"struct.std::__uniq_ptr_data.92" }
%"struct.std::__uniq_ptr_data.92" = type { %"class.std::__uniq_ptr_impl.93" }
%"class.std::__uniq_ptr_impl.93" = type { %"class.std::tuple.94" }
%"class.std::tuple.94" = type { %"struct.std::_Tuple_impl.95" }
%"struct.std::_Tuple_impl.95" = type { %"struct.std::_Head_base.98" }
%"struct.std::_Head_base.98" = type { ptr }

; Function Attrs: mustprogress nounwind uwtable
define linkonce_odr noundef nonnull align 8 dereferenceable(8) ptr @_ZNK9__gnu_cxx17__normal_iteratorIPKN6duckdb10unique_ptrINS1_11TableFilterESt14default_deleteIS3_ELb1EEESt6vectorIS6_SaIS6_EEE4baseEv(ptr noundef nonnull align 8 dereferenceable(8) %0) #6 comdat align 2 {
  %2 = alloca ptr, align 8
  store ptr %0, ptr %2, align 8, !tbaa !289
  %3 = load ptr, ptr %2, align 8
  %4 = getelementptr inbounds nuw %"class.__gnu_cxx::__normal_iterator", ptr %3, i32 0, i32 0
  ret ptr %4
}

; Function Attrs: mustprogress nounwind uwtable
define linkonce_odr void @_ZN9__gnu_cxx17__normal_iteratorIPKN6duckdb10unique_ptrINS1_11TableFilterESt14default_deleteIS3_ELb1EEESt6vectorIS6_SaIS6_EEEC2ERKS8_(ptr noundef nonnull align 8 dereferenceable(8) %0, ptr noundef nonnull align 8 dereferenceable(8) %1) unnamed_addr #6 comdat align 2 {
  %3 = alloca ptr, align 8
  %4 = alloca ptr, align 8
  store ptr %0, ptr %3, align 8, !tbaa !289
  store ptr %1, ptr %4, align 8, !tbaa !293
  %5 = load ptr, ptr %3, align 8
  %6 = getelementptr inbounds nuw %"class.__gnu_cxx::__normal_iterator", ptr %5, i32 0, i32 0
  %7 = load ptr, ptr %4, align 8, !tbaa !293
  %8 = load ptr, ptr %7, align 8, !tbaa !193
  store ptr %8, ptr %6, align 8, !tbaa !291
  ret void
}

; Function Attrs: mustprogress nounwind uwtable
define linkonce_odr noundef nonnull align 8 dereferenceable(8) ptr @_ZN9__gnu_cxx17__normal_iteratorIPKN6duckdb10unique_ptrINS1_11TableFilterESt14default_deleteIS3_ELb1EEESt6vectorIS6_SaIS6_EEEppEv(ptr noundef nonnull align 8 dereferenceable(8) %0) #6 comdat align 2 {
  %2 = alloca ptr, align 8
  store ptr %0, ptr %2, align 8, !tbaa !289
  %3 = load ptr, ptr %2, align 8
  %4 = getelementptr inbounds nuw %"class.__gnu_cxx::__normal_iterator", ptr %3, i32 0, i32 0
  %5 = load ptr, ptr %4, align 8, !tbaa !291
  %6 = getelementptr inbounds nuw %"class.duckdb::unique_ptr.90", ptr %5, i32 1
  store ptr %6, ptr %4, align 8, !tbaa !291
  ret ptr %3
}

; Function Attrs: mustprogress nounwind uwtable
define linkonce_odr noundef nonnull align 8 dereferenceable(8) ptr @_ZNK9__gnu_cxx17__normal_iteratorIPKN6duckdb10unique_ptrINS1_11TableFilterESt14default_deleteIS3_ELb1EEESt6vectorIS6_SaIS6_EEEdeEv(ptr noundef nonnull align 8 dereferenceable(8) %0) #6 comdat align 2 {
  %2 = alloca ptr, align 8
  store ptr %0, ptr %2, align 8, !tbaa !289
  %3 = load ptr, ptr %2, align 8
  %4 = getelementptr inbounds nuw %"class.__gnu_cxx::__normal_iterator", ptr %3, i32 0, i32 0
  %5 = load ptr, ptr %4, align 8, !tbaa !291
  ret ptr %5
}

; Function Attrs: inlinehint mustprogress nounwind uwtable
define linkonce_odr noundef zeroext i1 @_ZN9__gnu_cxxneIPKN6duckdb10unique_ptrINS1_11TableFilterESt14default_deleteIS3_ELb1EEESt6vectorIS6_SaIS6_EEEEbRKNS_17__normal_iteratorIT_T0_EESH_(ptr noundef nonnull align 8 dereferenceable(8) %0, ptr noundef nonnull align 8 dereferenceable(8) %1) #7 comdat {
  %3 = alloca ptr, align 8
  %4 = alloca ptr, align 8
  store ptr %0, ptr %3, align 8, !tbaa !289
  store ptr %1, ptr %4, align 8, !tbaa !289
  %5 = load ptr, ptr %3, align 8, !tbaa !289
  %6 = call noundef nonnull align 8 dereferenceable(8) ptr @_ZNK9__gnu_cxx17__normal_iteratorIPKN6duckdb10unique_ptrINS1_11TableFilterESt14default_deleteIS3_ELb1EEESt6vectorIS6_SaIS6_EEE4baseEv(ptr noundef nonnull align 8 dereferenceable(8) %5) #3
  %7 = load ptr, ptr %6, align 8, !tbaa !193
  %8 = load ptr, ptr %4, align 8, !tbaa !289
  %9 = call noundef nonnull align 8 dereferenceable(8) ptr @_ZNK9__gnu_cxx17__normal_iteratorIPKN6duckdb10unique_ptrINS1_11TableFilterESt14default_deleteIS3_ELb1EEESt6vectorIS6_SaIS6_EEE4baseEv(ptr noundef nonnull align 8 dereferenceable(8) %8) #3
  %10 = load ptr, ptr %9, align 8, !tbaa !193
  %11 = icmp ne ptr %7, %10
  ret i1 %11
}

; Function Attrs: mustprogress nounwind uwtable
define linkonce_odr ptr @_ZNKSt6vectorIN6duckdb10unique_ptrINS0_11TableFilterESt14default_deleteIS2_ELb1EEESaIS5_EE3endEv(ptr noundef nonnull align 8 dereferenceable(24) %0) #6 comdat align 2 {
  %2 = alloca %"class.__gnu_cxx::__normal_iterator", align 8
  %3 = alloca ptr, align 8
  store ptr %0, ptr %3, align 8, !tbaa !287
  %4 = load ptr, ptr %3, align 8
  %5 = getelementptr inbounds nuw %"struct.std::_Vector_base.86", ptr %4, i32 0, i32 0
  %6 = getelementptr inbounds nuw %"struct.std::_Vector_base<duckdb::unique_ptr<duckdb::TableFilter>, std::allocator<duckdb::unique_ptr<duckdb::TableFilter>>>::_Vector_impl_data", ptr %5, i32 0, i32 1
  call void @_ZN9__gnu_cxx17__normal_iteratorIPKN6duckdb10unique_ptrINS1_11TableFilterESt14default_deleteIS3_ELb1EEESt6vectorIS6_SaIS6_EEEC2ERKS8_(ptr noundef nonnull align 8 dereferenceable(8) %2, ptr noundef nonnull align 8 dereferenceable(8) %6) #3
  %7 = getelementptr inbounds nuw %"class.__gnu_cxx::__normal_iterator", ptr %2, i32 0, i32 0
  %8 = load ptr, ptr %7, align 8
  ret ptr %8
}

; Function Attrs: mustprogress nounwind uwtable
define linkonce_odr ptr @_ZNKSt6vectorIN6duckdb10unique_ptrINS0_11TableFilterESt14default_deleteIS2_ELb1EEESaIS5_EE5beginEv(ptr noundef nonnull align 8 dereferenceable(24) %0) #6 comdat align 2 {
  %2 = alloca %"class.__gnu_cxx::__normal_iterator", align 8
  %3 = alloca ptr, align 8
  store ptr %0, ptr %3, align 8, !tbaa !287
  %4 = load ptr, ptr %3, align 8
  %5 = getelementptr inbounds nuw %"struct.std::_Vector_base.86", ptr %4, i32 0, i32 0
  %6 = getelementptr inbounds nuw %"struct.std::_Vector_base<duckdb::unique_ptr<duckdb::TableFilter>, std::allocator<duckdb::unique_ptr<duckdb::TableFilter>>>::_Vector_impl_data", ptr %5, i32 0, i32 0
  call void @_ZN9__gnu_cxx17__normal_iteratorIPKN6duckdb10unique_ptrINS1_11TableFilterESt14default_deleteIS3_ELb1EEESt6vectorIS6_SaIS6_EEEC2ERKS8_(ptr noundef nonnull align 8 dereferenceable(8) %2, ptr noundef nonnull align 8 dereferenceable(8) %6) #3
  %7 = getelementptr inbounds nuw %"class.__gnu_cxx::__normal_iterator", ptr %2, i32 0, i32 0
  %8 = load ptr, ptr %7, align 8
  ret ptr %8
}

; Function Attrs: inlinehint mustprogress nounwind uwtable
define linkonce_odr noundef zeroext i1 @_ZNK6duckdb5Value6IsNullEv(ptr noundef nonnull align 8 dereferenceable(64) %0) #7 comdat align 2 {
  %2 = alloca ptr, align 8
  store ptr %0, ptr %2, align 8, !tbaa !284
  %3 = load ptr, ptr %2, align 8
  %4 = getelementptr inbounds nuw %"class.duckdb::Value", ptr %3, i32 0, i32 1
  %5 = load i8, ptr %4, align 8, !tbaa !286, !range !54, !noundef !55
  %6 = trunc i8 %5 to i1
  ret i1 %6
}

; Function Attrs: mustprogress uwtable
define internal noundef zeroext i1 @_ZN6duckdbL18HasFilterConstantsERKNS_11TableFilterE(ptr noundef nonnull align 8 dereferenceable(9) %0) #4 {
  %2 = alloca i1, align 1
  %3 = alloca ptr, align 8
  %4 = alloca ptr, align 8
  %5 = alloca ptr, align 8
  %6 = alloca i8, align 1
  %7 = alloca ptr, align 8
  %8 = alloca %"class.__gnu_cxx::__normal_iterator", align 8
  %9 = alloca %"class.__gnu_cxx::__normal_iterator", align 8
  %10 = alloca ptr, align 8
  %11 = alloca ptr, align 8
  %12 = alloca i8, align 1
  %13 = alloca ptr, align 8
  %14 = alloca %"class.__gnu_cxx::__normal_iterator", align 8
  %15 = alloca %"class.__gnu_cxx::__normal_iterator", align 8
  %16 = alloca ptr, align 8
  store ptr %0, ptr %3, align 8, !tbaa !118
  %17 = load ptr, ptr %3, align 8, !tbaa !118
  %18 = getelementptr inbounds nuw %"class.duckdb::TableFilter", ptr %17, i32 0, i32 1
  %19 = load i8, ptr %18, align 8, !tbaa !176
  switch i8 %19, label %96 [
    i8 0, label %20
    i8 4, label %34
    i8 3, label %65
  ]

20:                                               ; preds = %1
  call void @llvm.lifetime.start.p0(i64 8, ptr %4) #3
  %21 = load ptr, ptr %3, align 8, !tbaa !118
  %22 = call noundef nonnull align 8 dereferenceable(80) ptr @_ZNK6duckdb11TableFilter4CastINS_14ConstantFilterEEERKT_v(ptr noundef nonnull align 8 dereferenceable(9) %21)
  store ptr %22, ptr %4, align 8, !tbaa !179
  %23 = load ptr, ptr %4, align 8, !tbaa !179
  %24 = getelementptr inbounds nuw %"class.duckdb::ConstantFilter", ptr %23, i32 0, i32 1
  %25 = load i8, ptr %24, align 1, !tbaa !181
  %26 = icmp eq i8 %25, 25
  br i1 %26, label %27, label %32

27:                                               ; preds = %20
  %28 = load ptr, ptr %4, align 8, !tbaa !179
  %29 = getelementptr inbounds nuw %"class.duckdb::ConstantFilter", ptr %28, i32 0, i32 2
  %30 = call noundef zeroext i1 @_ZNK6duckdb5Value6IsNullEv(ptr noundef nonnull align 8 dereferenceable(64) %29)
  %31 = xor i1 %30, true
  br label %32

32:                                               ; preds = %27, %20
  %33 = phi i1 [ false, %20 ], [ %31, %27 ]
  store i1 %33, ptr %2, align 1
  call void @llvm.lifetime.end.p0(i64 8, ptr %4) #3
  br label %97

34:                                               ; preds = %1
  call void @llvm.lifetime.start.p0(i64 8, ptr %5) #3
  %35 = load ptr, ptr %3, align 8, !tbaa !118
  %36 = call noundef nonnull align 8 dereferenceable(40) ptr @_ZNK6duckdb11TableFilter4CastINS_20ConjunctionAndFilterEEERKT_v(ptr noundef nonnull align 8 dereferenceable(9) %35)
  store ptr %36, ptr %5, align 8, !tbaa !189
  call void @llvm.lifetime.start.p0(i64 1, ptr %6) #3
  store i8 0, ptr %6, align 1, !tbaa !52
  call void @llvm.lifetime.start.p0(i64 8, ptr %7) #3
  %37 = load ptr, ptr %5, align 8, !tbaa !189
  %38 = getelementptr inbounds nuw %"class.duckdb::ConjunctionFilter", ptr %37, i32 0, i32 1
  store ptr %38, ptr %7, align 8, !tbaa !191
  call void @llvm.lifetime.start.p0(i64 8, ptr %8) #3
  %39 = load ptr, ptr %7, align 8, !tbaa !191
  %40 = call ptr @_ZNKSt6vectorIN6duckdb10unique_ptrINS0_11TableFilterESt14default_deleteIS2_ELb1EEESaIS5_EE5beginEv(ptr noundef nonnull align 8 dereferenceable(24) %39) #3
  %41 = getelementptr inbounds nuw %"class.__gnu_cxx::__normal_iterator", ptr %8, i32 0, i32 0
  store ptr %40, ptr %41, align 8
  call void @llvm.lifetime.start.p0(i64 8, ptr %9) #3
  %42 = load ptr, ptr %7, align 8, !tbaa !191
  %43 = call ptr @_ZNKSt6vectorIN6duckdb10unique_ptrINS0_11TableFilterESt14default_deleteIS2_ELb1EEESaIS5_EE3endEv(ptr noundef nonnull align 8 dereferenceable(24) %42) #3
  %44 = getelementptr inbounds nuw %"class.__gnu_cxx::__normal_iterator", ptr %9, i32 0, i32 0
  store ptr %43, ptr %44, align 8
  br label %45

45:                                               ; preds = %60, %34
  %46 = call noundef zeroext i1 @_ZN9__gnu_cxxneIPKN6duckdb10unique_ptrINS1_11TableFilterESt14default_deleteIS3_ELb1EEESt6vectorIS6_SaIS6_EEEEbRKNS_17__normal_iteratorIT_T0_EESH_(ptr noundef nonnull align 8 dereferenceable(8) %8, ptr noundef nonnull align 8 dereferenceable(8) %9) #3
  br i1 %46, label %48, label %47

47:                                               ; preds = %45
  call void @llvm.lifetime.end.p0(i64 8, ptr %9) #3
  call void @llvm.lifetime.end.p0(i64 8, ptr %8) #3
  call void @llvm.lifetime.end.p0(i64 8, ptr %7) #3
  br label %62

48:                                               ; preds = %45
  call void @llvm.lifetime.start.p0(i64 8, ptr %10) #3
  %49 = call noundef nonnull align 8 dereferenceable(8) ptr @_ZNK9__gnu_cxx17__normal_iteratorIPKN6duckdb10unique_ptrINS1_11TableFilterESt14default_deleteIS3_ELb1EEESt6vectorIS6_SaIS6_EEEdeEv(ptr noundef nonnull align 8 dereferenceable(8) %8) #3
  store ptr %49, ptr %10, align 8, !tbaa !193
  %50 = load ptr, ptr %10, align 8, !tbaa !193
  %51 = call noundef nonnull align 8 dereferenceable(9) ptr @_ZNK6duckdb10unique_ptrINS_11TableFilterESt14default_deleteIS1_ELb1EEdeEv(ptr noundef nonnull align 8 dereferenceable(8) %50)
  %52 = call noundef zeroext i1 @_ZN6duckdbL18HasFilterConstantsERKNS_11TableFilterE(ptr noundef nonnull align 8 dereferenceable(9) %51)
  %53 = zext i1 %52 to i32
  %54 = load i8, ptr %6, align 1, !tbaa !52, !range !54, !noundef !55
  %55 = trunc i8 %54 to i1
  %56 = zext i1 %55 to i32
  %57 = or i32 %56, %53
  %58 = icmp ne i32 %57, 0
  %59 = zext i1 %58 to i8
  store i8 %59, ptr %6, align 1, !tbaa !52
  call void @llvm.lifetime.end.p0(i64 8, ptr %10) #3
  br label %60

60:                                               ; preds = %48
  %61 = call noundef nonnull align 8 dereferenceable(8) ptr @_ZN9__gnu_cxx17__normal_iteratorIPKN6duckdb10unique_ptrINS1_11TableFilterESt14default_deleteIS3_ELb1EEESt6vectorIS6_SaIS6_EEEppEv(ptr noundef nonnull align 8 dereferenceable(8) %8) #3
  br label %45

62:                                               ; preds = %47
  %63 = load i8, ptr %6, align 1, !tbaa !52, !range !54, !noundef !55
  %64 = trunc i8 %63 to i1
  store i1 %64, ptr %2, align 1
  call void @llvm.lifetime.end.p0(i64 1, ptr %6) #3
  call void @llvm.lifetime.end.p0(i64 8, ptr %5) #3
  br label %97

65:                                               ; preds = %1
  call void @llvm.lifetime.start.p0(i64 8, ptr %11) #3
  %66 = load ptr, ptr %3, align 8, !tbaa !118
  %67 = call noundef nonnull align 8 dereferenceable(40) ptr @_ZNK6duckdb11TableFilter4CastINS_19ConjunctionOrFilterEEERKT_v(ptr noundef nonnull align 8 dereferenceable(9) %66)
  store ptr %67, ptr %11, align 8, !tbaa !195
  call void @llvm.lifetime.start.p0(i64 1, ptr %12) #3
  store i8 0, ptr %12, align 1, !tbaa !52
  call void @llvm.lifetime.start.p0(i64 8, ptr %13) #3
  %68 = load ptr, ptr %11, align 8, !tbaa !195
  %69 = getelementptr inbounds nuw %"class.duckdb::ConjunctionFilter", ptr %68, i32 0, i32 1
  store ptr %69, ptr %13, align 8, !tbaa !191
  call void @llvm.lifetime.start.p0(i64 8, ptr %14) #3
  %70 = load ptr, ptr %13, align 8, !tbaa !191
  %71 = call ptr @_ZNKSt6vectorIN6duckdb10unique_ptrINS0_11TableFilterESt14default_deleteIS2_ELb1EEESaIS5_EE5beginEv(ptr noundef nonnull align 8 dereferenceable(24) %70) #3
  %72 = getelementptr inbounds nuw %"class.__gnu_cxx::__normal_iterator", ptr %14, i32 0, i32 0
  store ptr %71, ptr %72, align 8
  call void @llvm.lifetime.start.p0(i64 8, ptr %15) #3
  %73 = load ptr, ptr %13, align 8, !tbaa !191
  %74 = call ptr @_ZNKSt6vectorIN6duckdb10unique_ptrINS0_11TableFilterESt14default_deleteIS2_ELb1EEESaIS5_EE3endEv(ptr noundef nonnull align 8 dereferenceable(24) %73) #3
  %75 = getelementptr inbounds nuw %"class.__gnu_cxx::__normal_iterator", ptr %15, i32 0, i32 0
  store ptr %74, ptr %75, align 8
  br label %76

76:                                               ; preds = %91, %65
  %77 = call noundef zeroext i1 @_ZN9__gnu_cxxneIPKN6duckdb10unique_ptrINS1_11TableFilterESt14default_deleteIS3_ELb1EEESt6vectorIS6_SaIS6_EEEEbRKNS_17__normal_iteratorIT_T0_EESH_(ptr noundef nonnull align 8 dereferenceable(8) %14, ptr noundef nonnull align 8 dereferenceable(8) %15) #3
  br i1 %77, label %79, label %78

78:                                               ; preds = %76
  call void @llvm.lifetime.end.p0(i64 8, ptr %15) #3
  call void @llvm.lifetime.end.p0(i64 8, ptr %14) #3
  call void @llvm.lifetime.end.p0(i64 8, ptr %13) #3
  br label %93

79:                                               ; preds = %76
  call void @llvm.lifetime.start.p0(i64 8, ptr %16) #3
  %80 = call noundef nonnull align 8 dereferenceable(8) ptr @_ZNK9__gnu_cxx17__normal_iteratorIPKN6duckdb10unique_ptrINS1_11TableFilterESt14default_deleteIS3_ELb1EEESt6vectorIS6_SaIS6_EEEdeEv(ptr noundef nonnull align 8 dereferenceable(8) %14) #3
  store ptr %80, ptr %16, align 8, !tbaa !193
  %81 = load ptr, ptr %16, align 8, !tbaa !193
  %82 = call noundef nonnull align 8 dereferenceable(9) ptr @_ZNK6duckdb10unique_ptrINS_11TableFilterESt14default_deleteIS1_ELb1EEdeEv(ptr noundef nonnull align 8 dereferenceable(8) %81)
  %83 = call noundef zeroext i1 @_ZN6duckdbL18HasFilterConstantsERKNS_11TableFilterE(ptr noundef nonnull align 8 dereferenceable(9) %82)
  %84 = zext i1 %83 to i32
  %85 = load i8, ptr %12, align 1, !tbaa !52, !range !54, !noundef !55
  %86 = trunc i8 %85 to i1
  %87 = zext i1 %86 to i32
  %88 = or i32 %87, %84
  %89 = icmp ne i32 %88, 0
  %90 = zext i1 %89 to i8
  store i8 %90, ptr %12, align 1, !tbaa !52
  call void @llvm.lifetime.end.p0(i64 8, ptr %16) #3
  br label %91

91:                                               ; preds = %79
  %92 = call noundef nonnull align 8 dereferenceable(8) ptr @_ZN9__gnu_cxx17__normal_iteratorIPKN6duckdb10unique_ptrINS1_11TableFilterESt14default_deleteIS3_ELb1EEESt6vectorIS6_SaIS6_EEEppEv(ptr noundef nonnull align 8 dereferenceable(8) %14) #3
  br label %76

93:                                               ; preds = %78
  %94 = load i8, ptr %12, align 1, !tbaa !52, !range !54, !noundef !55
  %95 = trunc i8 %94 to i1
  store i1 %95, ptr %2, align 1
  call void @llvm.lifetime.end.p0(i64 1, ptr %12) #3
  call void @llvm.lifetime.end.p0(i64 8, ptr %11) #3
  br label %97

96:                                               ; preds = %1
  store i1 false, ptr %2, align 1
  br label %97

97:                                               ; preds = %96, %93, %62, %32
  %98 = load i1, ptr %2, align 1
  ret i1 %98
}