; Function Attrs: mustprogress uwtable
define internal fastcc noundef zeroext i1 @_ZN6duckdbL18HasFilterConstantsERKNS_11TableFilterE(ptr noundef nonnull align 8 dereferenceable(9) %0) unnamed_addr #3 {
  %2 = getelementptr inbounds nuw i8, ptr %0, i64 8
  %3 = load i8, ptr %2, align 8, !tbaa !160
  switch i8 %3, label %.loopexit [
    i8 0, label %4
    i8 4, label %14
    i8 3, label %24
  ]

4:                                                ; preds = %1
  %5 = tail call noundef nonnull align 8 dereferenceable(80) ptr @_ZNK6duckdb11TableFilter4CastINS_14ConstantFilterEEERKT_v(ptr noundef nonnull align 8 dereferenceable(9) %0)
  %6 = getelementptr inbounds nuw i8, ptr %5, i64 9
  %7 = load i8, ptr %6, align 1, !tbaa !163
  %8 = icmp eq i8 %7, 25
  br i1 %8, label %9, label %.loopexit

9:                                                ; preds = %4
  %10 = getelementptr inbounds nuw i8, ptr %5, i64 40
  %11 = load i8, ptr %10, align 8, !tbaa !171, !range !172, !noundef !173
  %12 = trunc nuw i8 %11 to i1
  %13 = xor i1 %12, true
  br label %.loopexit

14:                                               ; preds = %1
  %15 = tail call noundef nonnull align 8 dereferenceable(40) ptr @_ZNK6duckdb11TableFilter4CastINS_20ConjunctionAndFilterEEERKT_v(ptr noundef nonnull align 8 dereferenceable(9) %0)
  %16 = getelementptr inbounds nuw i8, ptr %15, i64 16
  %17 = load ptr, ptr %16, align 8, !tbaa !174
  %18 = getelementptr inbounds nuw i8, ptr %15, i64 24
  %19 = load ptr, ptr %18, align 8, !tbaa !174
  %.not2732 = icmp eq ptr %17, %19
  br i1 %.not2732, label %.loopexit, label %.lr.ph35

.lr.ph35:                                         ; preds = %14, %.lr.ph35
  %.01834 = phi i1 [ %22, %.lr.ph35 ], [ false, %14 ]
  %.sroa.024.033 = phi ptr [ %23, %.lr.ph35 ], [ %17, %14 ]
  %20 = tail call noundef nonnull align 8 dereferenceable(9) ptr @_ZNK6duckdb10unique_ptrINS_11TableFilterESt14default_deleteIS1_ELb1EEdeEv(ptr noundef nonnull align 8 dereferenceable(8) %.sroa.024.033)
  %21 = tail call fastcc noundef zeroext i1 @_ZN6duckdbL18HasFilterConstantsERKNS_11TableFilterE(ptr noundef nonnull align 8 dereferenceable(9) %20)
  %22 = or i1 %.01834, %21
  %23 = getelementptr inbounds nuw i8, ptr %.sroa.024.033, i64 8
  %.not27 = icmp eq ptr %23, %19
  br i1 %.not27, label %.loopexit, label %.lr.ph35

24:                                               ; preds = %1
  %25 = tail call noundef nonnull align 8 dereferenceable(40) ptr @_ZNK6duckdb11TableFilter4CastINS_19ConjunctionOrFilterEEERKT_v(ptr noundef nonnull align 8 dereferenceable(9) %0)
  %26 = getelementptr inbounds nuw i8, ptr %25, i64 16
  %27 = load ptr, ptr %26, align 8, !tbaa !174
  %28 = getelementptr inbounds nuw i8, ptr %25, i64 24
  %29 = load ptr, ptr %28, align 8, !tbaa !174
  %.not29 = icmp eq ptr %27, %29
  br i1 %.not29, label %.loopexit, label %.lr.ph

.lr.ph:                                           ; preds = %24, %.lr.ph
  %.01931 = phi i1 [ %32, %.lr.ph ], [ false, %24 ]
  %.sroa.020.030 = phi ptr [ %33, %.lr.ph ], [ %27, %24 ]
  %30 = tail call noundef nonnull align 8 dereferenceable(9) ptr @_ZNK6duckdb10unique_ptrINS_11TableFilterESt14default_deleteIS1_ELb1EEdeEv(ptr noundef nonnull align 8 dereferenceable(8) %.sroa.020.030)
  %31 = tail call fastcc noundef zeroext i1 @_ZN6duckdbL18HasFilterConstantsERKNS_11TableFilterE(ptr noundef nonnull align 8 dereferenceable(9) %30)
  %32 = or i1 %.01931, %31
  %33 = getelementptr inbounds nuw i8, ptr %.sroa.020.030, i64 8
  %.not = icmp eq ptr %33, %29
  br i1 %.not, label %.loopexit, label %.lr.ph

.loopexit:                                        ; preds = %.lr.ph, %.lr.ph35, %24, %14, %1, %4, %9
  %.0 = phi i1 [ false, %4 ], [ %13, %9 ], [ false, %1 ], [ false, %14 ], [ false, %24 ], [ %22, %.lr.ph35 ], [ %32, %.lr.ph ]
  ret i1 %.0
}